target datalayout = "e-m:e-p270:32:32-p271:32:32-p272:64:64-i64:64-i128:128-f80:128-n8:16:32:64-S128"
target triple = "x86_64-pc-linux-gnu"

%struct.PyVarObject = type { %struct._object, i64 }
%struct._object = type { %union.anon, ptr }
%union.anon = type { i64 }
%struct._longobject = type { %struct._object, %struct._PyLongValue }
%struct._PyLongValue = type { i64, [1 x i32] }
%struct.PyTupleObject = type { %struct.PyVarObject, [1 x ptr] }
%struct.mapobject = type { %struct._object, ptr, ptr, i32 }
%struct.anon = type { i32, i32 }

@_Py_TrueStruct = external global %struct._longobject, align 8
@.str.41 = private unnamed_addr constant [4 x i8] c"ONO\00", align 1
@.str.42 = private unnamed_addr constant [3 x i8] c"ON\00", align 1

; Function Attrs: alwaysinline nounwind uwtable
define internal void @Py_INCREF(ptr noundef %0) #3 {
  %2 = alloca ptr, align 8
  %3 = alloca i32, align 4
  %4 = alloca i32, align 4
  store ptr %0, ptr %2, align 8, !tbaa !4
  call void @llvm.lifetime.start.p0(i64 4, ptr %3) #9
  %5 = load ptr, ptr %2, align 8, !tbaa !4
  %6 = getelementptr inbounds nuw %struct._object, ptr %5, i32 0, i32 0
  %7 = getelementptr inbounds nuw %struct.anon, ptr %6, i32 0, i32 0
  %8 = load i32, ptr %7, align 8, !tbaa !74
  store i32 %8, ptr %3, align 4, !tbaa !38
  %9 = load i32, ptr %3, align 4, !tbaa !38
  %10 = icmp slt i32 %9, 0
  br i1 %10, label %11, label %12

11:                                               ; preds = %1
  store i32 1, ptr %4, align 4
  br label %18

12:                                               ; preds = %1
  %13 = load i32, ptr %3, align 4, !tbaa !38
  %14 = add i32 %13, 1
  %15 = load ptr, ptr %2, align 8, !tbaa !4
  %16 = getelementptr inbounds nuw %struct._object, ptr %15, i32 0, i32 0
  %17 = getelementptr inbounds nuw %struct.anon, ptr %16, i32 0, i32 0
  store i32 %14, ptr %17, align 8, !tbaa !74
  store i32 0, ptr %4, align 4
  br label %18

18:                                               ; preds = %12, %11
  call void @llvm.lifetime.end.p0(i64 4, ptr %3) #9
  %19 = load i32, ptr %4, align 4
  switch i32 %19, label %21 [
    i32 0, label %20
    i32 1, label %20
  ]

20:                                               ; preds = %18, %18
  ret void

21:                                               ; preds = %18
  unreachable
}

; Function Attrs: inlinehint nounwind uwtable
define internal i64 @Py_SIZE(ptr noundef %0) #4 {
  %2 = alloca ptr, align 8
  store ptr %0, ptr %2, align 8, !tbaa !4
  %3 = load ptr, ptr %2, align 8, !tbaa !4
  %4 = getelementptr inbounds nuw %struct.PyVarObject, ptr %3, i32 0, i32 1
  %5 = load i64, ptr %4, align 8, !tbaa !76
  ret i64 %5
}

; Function Attrs: inlinehint nounwind uwtable
define internal ptr @_Py_TYPE(ptr noundef %0) #4 {
  %2 = alloca ptr, align 8
  store ptr %0, ptr %2, align 8, !tbaa !4
  %3 = load ptr, ptr %2, align 8, !tbaa !4
  %4 = getelementptr inbounds nuw %struct._object, ptr %3, i32 0, i32 1
  %5 = load ptr, ptr %4, align 8, !tbaa !75
  ret ptr %5
}

; Function Attrs: inlinehint nounwind uwtable
define internal void @PyTuple_SET_ITEM(ptr noundef %0, i64 noundef %1, ptr noundef %2) #4 {
  %4 = alloca ptr, align 8
  %5 = alloca i64, align 8
  %6 = alloca ptr, align 8
  %7 = alloca ptr, align 8
  store ptr %0, ptr %4, align 8, !tbaa !4
  store i64 %1, ptr %5, align 8, !tbaa !40
  store ptr %2, ptr %6, align 8, !tbaa !4
  call void @llvm.lifetime.start.p0(i64 8, ptr %7) #9
  %8 = load ptr, ptr %4, align 8, !tbaa !4
  store ptr %8, ptr %7, align 8, !tbaa !9
  %9 = load ptr, ptr %6, align 8, !tbaa !4
  %10 = load ptr, ptr %7, align 8, !tbaa !9
  %11 = getelementptr inbounds nuw %struct.PyTupleObject, ptr %10, i32 0, i32 1
  %12 = load i64, ptr %5, align 8, !tbaa !40
  %13 = getelementptr [1 x ptr], ptr %11, i64 0, i64 %12
  store ptr %9, ptr %13, align 8, !tbaa !4
  call void @llvm.lifetime.end.p0(i64 8, ptr %7) #9
  ret void
}

; Function Attrs: inlinehint nounwind uwtable
define internal ptr @_Py_NewRef(ptr noundef %0) #4 {
  %2 = alloca ptr, align 8
  store ptr %0, ptr %2, align 8, !tbaa !4
  %3 = load ptr, ptr %2, align 8, !tbaa !4
  call void @Py_INCREF(ptr noundef %3)
  %4 = load ptr, ptr %2, align 8, !tbaa !4
  ret ptr %4
}

; Function Attrs: inlinehint nounwind uwtable
define internal i64 @PyTuple_GET_SIZE(ptr noundef %0) #4 {
  %2 = alloca ptr, align 8
  %3 = alloca ptr, align 8
  store ptr %0, ptr %2, align 8, !tbaa !4
  call void @llvm.lifetime.start.p0(i64 8, ptr %3) #9
  %4 = load ptr, ptr %2, align 8, !tbaa !4
  store ptr %4, ptr %3, align 8, !tbaa !9
  %5 = load ptr, ptr %3, align 8, !tbaa !9
  %6 = call i64 @Py_SIZE(ptr noundef %5)
  call void @llvm.lifetime.end.p0(i64 8, ptr %3) #9
  ret i64 %6
}

; Function Attrs: nounwind uwtable
define internal ptr @map_reduce(ptr noundef %0, ptr noundef %1) #0 {
  %3 = alloca ptr, align 8
  %4 = alloca ptr, align 8
  %5 = alloca ptr, align 8
  %6 = alloca ptr, align 8
  %7 = alloca i64, align 8
  %8 = alloca ptr, align 8
  %9 = alloca i64, align 8
  %10 = alloca i32, align 4
  %11 = alloca ptr, align 8
  store ptr %0, ptr %4, align 8, !tbaa !4
  store ptr %1, ptr %5, align 8, !tbaa !4
  call void @llvm.lifetime.start.p0(i64 8, ptr %6) #9
  %12 = load ptr, ptr %4, align 8, !tbaa !4
  store ptr %12, ptr %6, align 8, !tbaa !9
  call void @llvm.lifetime.start.p0(i64 8, ptr %7) #9
  %13 = load ptr, ptr %6, align 8, !tbaa !9
  %14 = getelementptr inbounds nuw %struct.mapobject, ptr %13, i32 0, i32 1
  %15 = load ptr, ptr %14, align 8, !tbaa !45
  %16 = call i64 @PyTuple_GET_SIZE(ptr noundef %15)
  store i64 %16, ptr %7, align 8, !tbaa !40
  call void @llvm.lifetime.start.p0(i64 8, ptr %8) #9
  %17 = load i64, ptr %7, align 8, !tbaa !40
  %18 = add i64 %17, 1
  %19 = call ptr @PyTuple_New(i64 noundef %18)
  store ptr %19, ptr %8, align 8, !tbaa !4
  call void @llvm.lifetime.start.p0(i64 8, ptr %9) #9
  %20 = load ptr, ptr %8, align 8, !tbaa !4
  %21 = icmp eq ptr %20, null
  br i1 %21, label %22, label %23

22:                                               ; preds = %2
  store ptr null, ptr %3, align 8
  store i32 1, ptr %10, align 4
  br label %64

23:                                               ; preds = %2
  %24 = load ptr, ptr %8, align 8, !tbaa !4
  %25 = load ptr, ptr %6, align 8, !tbaa !9
  %26 = getelementptr inbounds nuw %struct.mapobject, ptr %25, i32 0, i32 2
  %27 = load ptr, ptr %26, align 8, !tbaa !47
  %28 = call ptr @_Py_NewRef(ptr noundef %27)
  call void @PyTuple_SET_ITEM(ptr noundef %24, i64 noundef 0, ptr noundef %28)
  store i64 0, ptr %9, align 8, !tbaa !40
  br label %29

29:                                               ; preds = %46, %23
  %30 = load i64, ptr %9, align 8, !tbaa !40
  %31 = load i64, ptr %7, align 8, !tbaa !40
  %32 = icmp slt i64 %30, %31
  br i1 %32, label %33, label %49

33:                                               ; preds = %29
  call void @llvm.lifetime.start.p0(i64 8, ptr %11) #9
  %34 = load ptr, ptr %6, align 8, !tbaa !9
  %35 = getelementptr inbounds nuw %struct.mapobject, ptr %34, i32 0, i32 1
  %36 = load ptr, ptr %35, align 8, !tbaa !45
  %37 = getelementptr inbounds nuw %struct.PyTupleObject, ptr %36, i32 0, i32 1
  %38 = load i64, ptr %9, align 8, !tbaa !40
  %39 = getelementptr [1 x ptr], ptr %37, i64 0, i64 %38
  %40 = load ptr, ptr %39, align 8, !tbaa !4
  store ptr %40, ptr %11, align 8, !tbaa !4
  %41 = load ptr, ptr %8, align 8, !tbaa !4
  %42 = load i64, ptr %9, align 8, !tbaa !40
  %43 = add i64 %42, 1
  %44 = load ptr, ptr %11, align 8, !tbaa !4
  %45 = call ptr @_Py_NewRef(ptr noundef %44)
  call void @PyTuple_SET_ITEM(ptr noundef %41, i64 noundef %43, ptr noundef %45)
  call void @llvm.lifetime.end.p0(i64 8, ptr %11) #9
  br label %46

46:                                               ; preds = %33
  %47 = load i64, ptr %9, align 8, !tbaa !40
  %48 = add i64 %47, 1
  store i64 %48, ptr %9, align 8, !tbaa !40
  br label %29, !llvm.loop !79

49:                                               ; preds = %29
  %50 = load ptr, ptr %6, align 8, !tbaa !9
  %51 = getelementptr inbounds nuw %struct.mapobject, ptr %50, i32 0, i32 3
  %52 = load i32, ptr %51, align 8, !tbaa !48
  %53 = icmp ne i32 %52, 0
  br i1 %53, label %54, label %59

54:                                               ; preds = %49
  %55 = load ptr, ptr %6, align 8, !tbaa !9
  %56 = call ptr @_Py_TYPE(ptr noundef %55)
  %57 = load ptr, ptr %8, align 8, !tbaa !4
  %58 = call ptr (ptr, ...) @Py_BuildValue(ptr noundef @.str.41, ptr noundef %56, ptr noundef %57, ptr noundef @_Py_TrueStruct)
  store ptr %58, ptr %3, align 8
  store i32 1, ptr %10, align 4
  br label %64

59:                                               ; preds = %49
  %60 = load ptr, ptr %6, align 8, !tbaa !9
  %61 = call ptr @_Py_TYPE(ptr noundef %60)
  %62 = load ptr, ptr %8, align 8, !tbaa !4
  %63 = call ptr (ptr, ...) @Py_BuildValue(ptr noundef @.str.42, ptr noundef %61, ptr noundef %62)
  store ptr %63, ptr %3, align 8
  store i32 1, ptr %10, align 4
  br label %64

64:                                               ; preds = %59, %54, %22
  call void @llvm.lifetime.end.p0(i64 8, ptr %9) #9
  call void @llvm.lifetime.end.p0(i64 8, ptr %8) #9
  call void @llvm.lifetime.end.p0(i64 8, ptr %7) #9
  call void @llvm.lifetime.end.p0(i64 8, ptr %6) #9
  %65 = load ptr, ptr %3, align 8
  ret ptr %65
}