; Function Attrs: nounwind uwtable
define internal ptr @map_reduce(ptr noundef readonly captures(none) %0, ptr readnone captures(none) %1) #0 {
  %3 = getelementptr inbounds nuw i8, ptr %0, i64 16
  %4 = load ptr, ptr %3, align 8, !tbaa !41
  %5 = getelementptr i8, ptr %4, i64 16
  %.val = load i64, ptr %5, align 8, !tbaa !45
  %6 = add i64 %.val, 1
  %7 = tail call ptr @PyTuple_New(i64 noundef %6) #9
  %8 = icmp eq ptr %7, null
  br i1 %8, label %35, label %9

9:                                                ; preds = %2
  %10 = getelementptr inbounds nuw i8, ptr %0, i64 24
  %11 = load ptr, ptr %10, align 8, !tbaa !43
  %12 = load i32, ptr %11, align 8, !tbaa !33
  %13 = icmp slt i32 %12, 0
  br i1 %13, label %_Py_NewRef.exit, label %14

14:                                               ; preds = %9
  %15 = add nuw i32 %12, 1
  store i32 %15, ptr %11, align 8, !tbaa !33
  br label %_Py_NewRef.exit

_Py_NewRef.exit:                                  ; preds = %9, %14
  %16 = getelementptr inbounds nuw i8, ptr %7, i64 24
  store ptr %11, ptr %16, align 8, !tbaa !39
  %17 = icmp sgt i64 %.val, 0
  br i1 %17, label %.lr.ph, label %._crit_edge

.lr.ph:                                           ; preds = %_Py_NewRef.exit, %_Py_NewRef.exit23
  %.01924 = phi i64 [ %22, %_Py_NewRef.exit23 ], [ 0, %_Py_NewRef.exit ]
  %18 = load ptr, ptr %3, align 8, !tbaa !41
  %19 = getelementptr inbounds nuw i8, ptr %18, i64 24
  %20 = getelementptr [1 x ptr], ptr %19, i64 0, i64 %.01924
  %21 = load ptr, ptr %20, align 8, !tbaa !39
  %22 = add nuw nsw i64 %.01924, 1
  %23 = load i32, ptr %21, align 8, !tbaa !33
  %24 = icmp slt i32 %23, 0
  br i1 %24, label %_Py_NewRef.exit23, label %25

25:                                               ; preds = %.lr.ph
  %26 = add nuw i32 %23, 1
  store i32 %26, ptr %21, align 8, !tbaa !33
  br label %_Py_NewRef.exit23

_Py_NewRef.exit23:                                ; preds = %.lr.ph, %25
  %27 = getelementptr [1 x ptr], ptr %16, i64 0, i64 %22
  store ptr %21, ptr %27, align 8, !tbaa !39
  %exitcond.not = icmp eq i64 %22, %.val
  br i1 %exitcond.not, label %._crit_edge, label %.lr.ph, !llvm.loop !139

._crit_edge:                                      ; preds = %_Py_NewRef.exit23, %_Py_NewRef.exit
  %28 = getelementptr inbounds nuw i8, ptr %0, i64 32
  %29 = load i32, ptr %28, align 8, !tbaa !46
  %.not = icmp eq i32 %29, 0
  %30 = getelementptr i8, ptr %0, i64 8
  %.val21 = load ptr, ptr %30, align 8, !tbaa !20
  br i1 %.not, label %33, label %31

31:                                               ; preds = %._crit_edge
  %32 = tail call ptr (ptr, ...) @Py_BuildValue(ptr noundef nonnull @.str.41, ptr noundef %.val21, ptr noundef nonnull %7, ptr noundef nonnull @_Py_TrueStruct) #9
  br label %35

33:                                               ; preds = %._crit_edge
  %34 = tail call ptr (ptr, ...) @Py_BuildValue(ptr noundef nonnull @.str.42, ptr noundef %.val21, ptr noundef nonnull %7) #9
  br label %35

35:                                               ; preds = %2, %33, %31
  %.0 = phi ptr [ %32, %31 ], [ %34, %33 ], [ null, %2 ]
  ret ptr %.0
}